; Function Attrs: mustprogress uwtable
define hidden noundef zeroext i1 @_ZN4cvc58internal6theory11quantifiers16SygusReconstruct5matchENS0_12NodeTemplateILb1EEES5_RSt13unordered_mapIS5_S5_St4hashIS5_ESt8equal_toIS5_ESaISt4pairIKS5_S5_EEE(ptr noundef nonnull align 8 dereferenceable(728) %0, ptr noundef readonly captures(none) %1, ptr noundef readonly captures(none) %2, ptr noundef nonnull align 8 dereferenceable(56) %3) local_unnamed_addr #3 align 2 personality ptr @__gxx_personality_v0 {
  %5 = alloca %"class.cvc5::internal::NodeTemplate", align 8
  %6 = alloca %"class.cvc5::internal::NodeTemplate", align 8
  %7 = alloca %"class.cvc5::internal::NodeTemplate.432", align 8
  %8 = alloca %"class.cvc5::internal::NodeTemplate", align 8
  %9 = alloca %"class.cvc5::internal::NodeTemplate", align 8
  %10 = getelementptr inbounds nuw i8, ptr %0, i64 8
  %11 = getelementptr inbounds nuw i8, ptr %0, i64 256
  %12 = load ptr, ptr %2, align 8, !tbaa !80
  store ptr %12, ptr %7, align 8, !tbaa !327
  call void @_ZNK4cvc58internal6EnvObj7rewriteENS0_12NodeTemplateILb0EEE(ptr dead_on_unwind nonnull writable sret(%"class.cvc5::internal::NodeTemplate") align 8 %6, ptr noundef nonnull align 8 dereferenceable(16) %11, ptr noundef nonnull %7)
  invoke void @_ZN4cvc58internal13NodeConverter7convertENS0_12NodeTemplateILb1EEEb(ptr dead_on_unwind nonnull writable sret(%"class.cvc5::internal::NodeTemplate") align 8 %5, ptr noundef nonnull align 8 dereferenceable(241) %10, ptr noundef nonnull %6, i1 noundef zeroext true)
          to label %13 unwind label %84

13:                                               ; preds = %4
  %14 = load ptr, ptr %1, align 8, !tbaa !80
  store ptr %14, ptr %9, align 8, !tbaa !80
  %15 = load i64, ptr %14, align 8
  %16 = lshr i64 %15, 40
  %17 = trunc nuw nsw i64 %16 to i32
  %18 = and i32 %17, 1048575
  %19 = icmp samesign ult i32 %18, 1048574
  br i1 %19, label %20, label %25, !prof !100

20:                                               ; preds = %13
  %21 = add i64 %15, 1099511627776
  %22 = and i64 %21, 1152920405095219200
  %23 = and i64 %15, -1152920405095219201
  %24 = or disjoint i64 %22, %23
  store i64 %24, ptr %14, align 8
  br label %_ZN4cvc58internal12NodeTemplateILb1EEC2ERKS2_.exit

25:                                               ; preds = %13
  %26 = icmp eq i32 %18, 1048574
  br i1 %26, label %27, label %_ZN4cvc58internal12NodeTemplateILb1EEC2ERKS2_.exit, !prof !101

27:                                               ; preds = %25
  %28 = or i64 %15, 1152920405095219200
  store i64 %28, ptr %14, align 8
  invoke void @_ZN4cvc58internal4expr9NodeValue20markRefCountMaxedOutEv(ptr noundef nonnull align 8 dereferenceable(24) %14)
          to label %_ZN4cvc58internal12NodeTemplateILb1EEC2ERKS2_.exit unwind label %86

_ZN4cvc58internal12NodeTemplateILb1EEC2ERKS2_.exit: ; preds = %25, %20, %27
  invoke void @_ZN4cvc58internal13NodeConverter7convertENS0_12NodeTemplateILb1EEEb(ptr dead_on_unwind nonnull writable sret(%"class.cvc5::internal::NodeTemplate") align 8 %8, ptr noundef nonnull align 8 dereferenceable(241) %10, ptr noundef nonnull %9, i1 noundef zeroext true)
          to label %29 unwind label %88

29:                                               ; preds = %_ZN4cvc58internal12NodeTemplateILb1EEC2ERKS2_.exit
  %30 = invoke noundef zeroext i1 @_ZN4cvc58internal4expr5matchENS0_12NodeTemplateILb1EEES3_RSt13unordered_mapIS3_S3_St4hashIS3_ESt8equal_toIS3_ESaISt4pairIKS3_S3_EEE(ptr noundef nonnull %5, ptr noundef nonnull %8, ptr noundef nonnull align 8 dereferenceable(56) %3)
          to label %31 unwind label %90

31:                                               ; preds = %29
  %32 = load ptr, ptr %8, align 8, !tbaa !80
  %33 = load i64, ptr %32, align 8
  %34 = and i64 %33, 1152920405095219200
  %.not.i.i = icmp eq i64 %34, 1152920405095219200
  br i1 %.not.i.i, label %_ZN4cvc58internal12NodeTemplateILb1EED2Ev.exit, label %35, !prof !101

35:                                               ; preds = %31
  %36 = add i64 %33, 1152920405095219200
  %37 = and i64 %36, 1152920405095219200
  %38 = and i64 %33, -1152920405095219201
  %39 = or disjoint i64 %37, %38
  store i64 %39, ptr %32, align 8
  %40 = icmp eq i64 %37, 0
  br i1 %40, label %41, label %_ZN4cvc58internal12NodeTemplateILb1EED2Ev.exit, !prof !101

41:                                               ; preds = %35
  invoke void @_ZN4cvc58internal4expr9NodeValue15markForDeletionEv(ptr noundef nonnull align 8 dereferenceable(24) %32)
          to label %_ZN4cvc58internal12NodeTemplateILb1EED2Ev.exit unwind label %42

42:                                               ; preds = %41
  %43 = landingpad { ptr, i32 }
          catch ptr null
  %44 = extractvalue { ptr, i32 } %43, 0
  call void @__clang_call_terminate(ptr %44) #26
  unreachable

_ZN4cvc58internal12NodeTemplateILb1EED2Ev.exit:   ; preds = %31, %35, %41
  %45 = load ptr, ptr %9, align 8, !tbaa !80
  %46 = load i64, ptr %45, align 8
  %47 = and i64 %46, 1152920405095219200
  %.not.i.i11 = icmp eq i64 %47, 1152920405095219200
  br i1 %.not.i.i11, label %_ZN4cvc58internal12NodeTemplateILb1EED2Ev.exit12, label %48, !prof !101

48:                                               ; preds = %_ZN4cvc58internal12NodeTemplateILb1EED2Ev.exit
  %49 = add i64 %46, 1152920405095219200
  %50 = and i64 %49, 1152920405095219200
  %51 = and i64 %46, -1152920405095219201
  %52 = or disjoint i64 %50, %51
  store i64 %52, ptr %45, align 8
  %53 = icmp eq i64 %50, 0
  br i1 %53, label %54, label %_ZN4cvc58internal12NodeTemplateILb1EED2Ev.exit12, !prof !101

54:                                               ; preds = %48
  invoke void @_ZN4cvc58internal4expr9NodeValue15markForDeletionEv(ptr noundef nonnull align 8 dereferenceable(24) %45)
          to label %_ZN4cvc58internal12NodeTemplateILb1EED2Ev.exit12 unwind label %55

55:                                               ; preds = %54
  %56 = landingpad { ptr, i32 }
          catch ptr null
  %57 = extractvalue { ptr, i32 } %56, 0
  call void @__clang_call_terminate(ptr %57) #26
  unreachable

_ZN4cvc58internal12NodeTemplateILb1EED2Ev.exit12: ; preds = %_ZN4cvc58internal12NodeTemplateILb1EED2Ev.exit, %48, %54
  %58 = load ptr, ptr %5, align 8, !tbaa !80
  %59 = load i64, ptr %58, align 8
  %60 = and i64 %59, 1152920405095219200
  %.not.i.i13 = icmp eq i64 %60, 1152920405095219200
  br i1 %.not.i.i13, label %_ZN4cvc58internal12NodeTemplateILb1EED2Ev.exit14, label %61, !prof !101

61:                                               ; preds = %_ZN4cvc58internal12NodeTemplateILb1EED2Ev.exit12
  %62 = add i64 %59, 1152920405095219200
  %63 = and i64 %62, 1152920405095219200
  %64 = and i64 %59, -1152920405095219201
  %65 = or disjoint i64 %63, %64
  store i64 %65, ptr %58, align 8
  %66 = icmp eq i64 %63, 0
  br i1 %66, label %67, label %_ZN4cvc58internal12NodeTemplateILb1EED2Ev.exit14, !prof !101

67:                                               ; preds = %61
  invoke void @_ZN4cvc58internal4expr9NodeValue15markForDeletionEv(ptr noundef nonnull align 8 dereferenceable(24) %58)
          to label %_ZN4cvc58internal12NodeTemplateILb1EED2Ev.exit14 unwind label %68

68:                                               ; preds = %67
  %69 = landingpad { ptr, i32 }
          catch ptr null
  %70 = extractvalue { ptr, i32 } %69, 0
  call void @__clang_call_terminate(ptr %70) #26
  unreachable

_ZN4cvc58internal12NodeTemplateILb1EED2Ev.exit14: ; preds = %_ZN4cvc58internal12NodeTemplateILb1EED2Ev.exit12, %61, %67
  %71 = load ptr, ptr %6, align 8, !tbaa !80
  %72 = load i64, ptr %71, align 8
  %73 = and i64 %72, 1152920405095219200
  %.not.i.i15 = icmp eq i64 %73, 1152920405095219200
  br i1 %.not.i.i15, label %_ZN4cvc58internal12NodeTemplateILb1EED2Ev.exit16, label %74, !prof !101

74:                                               ; preds = %_ZN4cvc58internal12NodeTemplateILb1EED2Ev.exit14
  %75 = add i64 %72, 1152920405095219200
  %76 = and i64 %75, 1152920405095219200
  %77 = and i64 %72, -1152920405095219201
  %78 = or disjoint i64 %76, %77
  store i64 %78, ptr %71, align 8
  %79 = icmp eq i64 %76, 0
  br i1 %79, label %80, label %_ZN4cvc58internal12NodeTemplateILb1EED2Ev.exit16, !prof !101

80:                                               ; preds = %74
  invoke void @_ZN4cvc58internal4expr9NodeValue15markForDeletionEv(ptr noundef nonnull align 8 dereferenceable(24) %71)
          to label %_ZN4cvc58internal12NodeTemplateILb1EED2Ev.exit16 unwind label %81

81:                                               ; preds = %80
  %82 = landingpad { ptr, i32 }
          catch ptr null
  %83 = extractvalue { ptr, i32 } %82, 0
  call void @__clang_call_terminate(ptr %83) #26
  unreachable

_ZN4cvc58internal12NodeTemplateILb1EED2Ev.exit16: ; preds = %_ZN4cvc58internal12NodeTemplateILb1EED2Ev.exit14, %74, %80
  ret i1 %30

84:                                               ; preds = %4
  %85 = landingpad { ptr, i32 }
          cleanup
  br label %94

86:                                               ; preds = %27
  %87 = landingpad { ptr, i32 }
          cleanup
  br label %93

88:                                               ; preds = %_ZN4cvc58internal12NodeTemplateILb1EEC2ERKS2_.exit
  %89 = landingpad { ptr, i32 }
          cleanup
  br label %92

90:                                               ; preds = %29
  %91 = landingpad { ptr, i32 }
          cleanup
  call void @_ZN4cvc58internal12NodeTemplateILb1EED2Ev(ptr noundef nonnull align 8 dereferenceable(8) %8) #23
  br label %92

92:                                               ; preds = %90, %88
  %.pn = phi { ptr, i32 } [ %91, %90 ], [ %89, %88 ]
  call void @_ZN4cvc58internal12NodeTemplateILb1EED2Ev(ptr noundef nonnull align 8 dereferenceable(8) %9) #23
  br label %93

93:                                               ; preds = %92, %86
  %.pn.pn = phi { ptr, i32 } [ %.pn, %92 ], [ %87, %86 ]
  call void @_ZN4cvc58internal12NodeTemplateILb1EED2Ev(ptr noundef nonnull align 8 dereferenceable(8) %5) #23
  br label %94

94:                                               ; preds = %93, %84
  %.pn.pn.pn = phi { ptr, i32 } [ %.pn.pn, %93 ], [ %85, %84 ]
  call void @_ZN4cvc58internal12NodeTemplateILb1EED2Ev(ptr noundef nonnull align 8 dereferenceable(8) %6) #23
  resume { ptr, i32 } %.pn.pn.pn
}